; Function Attrs: nounwind uwtable
define void @lv_textarea_set_placeholder_text(ptr noundef %0, ptr noundef %1) local_unnamed_addr #0 {
  %.not = icmp eq ptr %0, null
  br i1 %.not, label %.preheader, label %3

.preheader:                                       ; preds = %2, %.preheader
  br label %.preheader

3:                                                ; preds = %2
  %.not20 = icmp eq ptr %1, null
  br i1 %.not20, label %.preheader23, label %4

.preheader23:                                     ; preds = %3, %.preheader23
  br label %.preheader23

4:                                                ; preds = %3
  %5 = tail call i64 @lv_strlen(ptr noundef nonnull %1) #10
  %6 = icmp eq i64 %5, 0
  %7 = getelementptr inbounds nuw i8, ptr %0, i64 72
  %8 = load ptr, ptr %7, align 8, !tbaa !25
  br i1 %6, label %9, label %._crit_edge

9:                                                ; preds = %4
  %.not21 = icmp eq ptr %8, null
  br i1 %.not21, label %._crit_edge, label %10

10:                                               ; preds = %9
  tail call void @lv_free(ptr noundef nonnull %8) #10
  store ptr null, ptr %7, align 8, !tbaa !25
  br label %19

._crit_edge:                                      ; preds = %4, %9
  %11 = phi ptr [ null, %9 ], [ %8, %4 ]
  %12 = getelementptr inbounds nuw i8, ptr %0, i64 72
  %13 = add i64 %5, 1
  %14 = tail call ptr @lv_realloc(ptr noundef %11, i64 noundef %13) #10
  store ptr %14, ptr %12, align 8, !tbaa !25
  %.not22 = icmp eq ptr %14, null
  br i1 %.not22, label %.preheader24, label %15

.preheader24:                                     ; preds = %._crit_edge, %.preheader24
  br label %.preheader24

15:                                               ; preds = %._crit_edge
  %16 = tail call ptr @lv_strcpy(ptr noundef nonnull %14, ptr noundef nonnull %1) #10
  %17 = load ptr, ptr %12, align 8, !tbaa !25
  %18 = getelementptr inbounds nuw i8, ptr %17, i64 %5
  store i8 0, ptr %18, align 1, !tbaa !38
  br label %19

19:                                               ; preds = %15, %10
  tail call void @lv_obj_invalidate(ptr noundef nonnull %0) #10
  ret void
}